; Function Attrs: inlinehint mustprogress nounwind uwtable
define internal void @_ZN7jsonnet8internal12_GLOBAL__N_116HeapSimpleObjectD2Ev(ptr noundef nonnull align 8 dereferenceable(136) initializes((0, 8)) %0) unnamed_addr #17 align 2 personality ptr @__gxx_personality_v0 {
  store ptr getelementptr inbounds nuw inrange(-16, 16) (i8, ptr @_ZTVN7jsonnet8internal12_GLOBAL__N_116HeapSimpleObjectE, i64 16), ptr %0, align 8, !tbaa !43
  %2 = getelementptr inbounds nuw i8, ptr %0, i64 112
  %3 = load ptr, ptr %2, align 8, !tbaa !260
  %.not8.i.i = icmp eq ptr %3, %2
  br i1 %.not8.i.i, label %_ZNSt7__cxx1110_List_baseIPN7jsonnet8internal3ASTESaIS4_EED2Ev.exit, label %.lr.ph.i.i

.lr.ph.i.i:                                       ; preds = %1, %.lr.ph.i.i
  %.09.i.i = phi ptr [ %4, %.lr.ph.i.i ], [ %3, %1 ]
  %4 = load ptr, ptr %.09.i.i, align 8, !tbaa !260
  tail call void @_ZdlPvm(ptr noundef nonnull %.09.i.i, i64 noundef 24) #39
  %.not.i.i = icmp eq ptr %4, %2
  br i1 %.not.i.i, label %_ZNSt7__cxx1110_List_baseIPN7jsonnet8internal3ASTESaIS4_EED2Ev.exit, label %.lr.ph.i.i, !llvm.loop !290

_ZNSt7__cxx1110_List_baseIPN7jsonnet8internal3ASTESaIS4_EED2Ev.exit: ; preds = %.lr.ph.i.i, %1
  %5 = getelementptr inbounds nuw i8, ptr %0, i64 80
  %.val1 = load ptr, ptr %5, align 8, !tbaa !6
  tail call fastcc void @_ZNSt8_Rb_treeIPKN7jsonnet8internal10IdentifierESt4pairIKS4_NS1_12_GLOBAL__N_116HeapSimpleObject5FieldEESt10_Select1stISA_ESt4lessIS4_ESaISA_EE8_M_eraseEPSt13_Rb_tree_nodeISA_E(ptr noundef %.val1)
  %6 = getelementptr inbounds nuw i8, ptr %0, i64 32
  %.val = load ptr, ptr %6, align 8, !tbaa !6
  tail call fastcc void @_ZNSt8_Rb_treeIPKN7jsonnet8internal10IdentifierESt4pairIKS4_PNS1_12_GLOBAL__N_19HeapThunkEESt10_Select1stISA_ESt4lessIS4_ESaISA_EE8_M_eraseEPSt13_Rb_tree_nodeISA_E(ptr noundef %.val)
  ret void
}